   1               		.file	"main.c"
   2               	__SP_H__ = 0x3e
   3               	__SP_L__ = 0x3d
   4               	__SREG__ = 0x3f
   5               	__tmp_reg__ = 0
   6               	__zero_reg__ = 1
   7               		.text
   8               	.Ltext0:
   9               		.cfi_sections	.debug_frame
  10               		.file 0 "/home/files/projects/unholy-c" "src/main.c"
  12               	uart_tx:
  13               	.LVL0:
  14               	.LFB40:
  15               		.file 1 "src/stream.c"
   1:src/stream.c  **** #define COLOR_RED    "\033[31;1m"
   2:src/stream.c  **** #define COLOR_PURPLE "\033[35;1m"
   3:src/stream.c  **** #define COLOR_RESET  "\033[0m"
   4:src/stream.c  **** 
   5:src/stream.c  **** #if PLATFORM == PLATFORM_AVR
   6:src/stream.c  **** 
   7:src/stream.c  **** #define UART_BAUD        9600
   8:src/stream.c  **** #define UART_BUFFER_SIZE   32
   9:src/stream.c  **** #define _BAUD                (((F_CPU / (UART_BAUD * 16UL))) - 1)
  10:src/stream.c  **** 
  11:src/stream.c  **** static volatile u8 _tb_available, _rb_available;
  12:src/stream.c  **** 
  13:src/stream.c  **** static volatile char
  14:src/stream.c  **** 	_tb_start[UART_BUFFER_SIZE],
  15:src/stream.c  **** 	_rb_start[UART_BUFFER_SIZE],
  16:src/stream.c  **** 	*_tb_end, *_tb_read, *_tb_write,
  17:src/stream.c  **** 	*_rb_end, *_rb_read, *_rb_write;
  18:src/stream.c  **** 
  19:src/stream.c  **** static void uart_init(void)
  20:src/stream.c  **** {
  21:src/stream.c  **** 	UCSR0B = (1 << RXCIE0) | (1 << UDRIE0) | (1 << RXEN0) | (1 << TXEN0);
  22:src/stream.c  **** 	UCSR0C = (1 << UCSZ01) | (1 << UCSZ00);
  23:src/stream.c  **** 	UBRR0 = _BAUD;
  24:src/stream.c  **** 	_tb_read = _tb_write = _tb_start;
  25:src/stream.c  **** 	_rb_read = _rb_write = _rb_start;
  26:src/stream.c  **** }
  27:src/stream.c  **** 
  28:src/stream.c  **** static u8 uart_available(void)
  29:src/stream.c  **** {
  30:src/stream.c  **** 	return _rb_available;
  31:src/stream.c  **** }
  32:src/stream.c  **** 
  33:src/stream.c  **** static void uart_tx(char c)
  34:src/stream.c  **** {
  16               		.loc 1 34 1 view -0
  17               		.cfi_startproc
  18               	/* prologue: function */
  19               	/* frame size = 0 */
  20               	/* stack size = 0 */
  21               	.L__stack_usage = 0
  35:src/stream.c  **** 	if(UCSR0A & (1 << UDRE0))
  22               		.loc 1 35 2 view .LVU1
  23               		.loc 1 35 5 is_stmt 0 view .LVU2
  24 0000 9091 C000 		lds r25,192
  25               		.loc 1 35 4 view .LVU3
  26 0004 95FF      		sbrs r25,5
  27 0006 00C0      		rjmp .L2
  36:src/stream.c  **** 	{
  37:src/stream.c  **** 		UDR0 = c;
  28               		.loc 1 37 3 is_stmt 1 view .LVU4
  29               		.loc 1 37 8 is_stmt 0 view .LVU5
  30 0008 8093 C600 		sts 198,r24
  31 000c 0895      		ret
  32               	.L2:
  38:src/stream.c  **** 	}
  39:src/stream.c  **** 	else
  40:src/stream.c  **** 	{
  41:src/stream.c  **** 		while(_tb_available >= UART_BUFFER_SIZE - 1) ;
  33               		.loc 1 41 23 is_stmt 1 discriminator 1 view .LVU6
  34 000e 9091 0000 		lds r25,_tb_available
  35 0012 9F31      		cpi r25,lo8(31)
  36 0014 00F4      		brsh .L2
  42:src/stream.c  **** 
  43:src/stream.c  **** 		++_tb_available;
  37               		.loc 1 43 3 view .LVU7
  38 0016 9091 0000 		lds r25,_tb_available
  39 001a 9F5F      		subi r25,lo8(-(1))
  40 001c 9093 0000 		sts _tb_available,r25
  44:src/stream.c  **** 		*_tb_write++ = c;
  41               		.loc 1 44 3 view .LVU8
  42               		.loc 1 44 13 is_stmt 0 view .LVU9
  43 0020 E091 0000 		lds r30,_tb_write
  44 0024 F091 0000 		lds r31,_tb_write+1
  45 0028 9F01      		movw r18,r30
  46 002a 2F5F      		subi r18,-1
  47 002c 3F4F      		sbci r19,-1
  48 002e 3093 0000 		sts _tb_write+1,r19
  49 0032 2093 0000 		sts _tb_write,r18
  50               		.loc 1 44 16 view .LVU10
  51 0036 8083      		st Z,r24
  45:src/stream.c  **** 		if(_tb_write == _tb_end)
  52               		.loc 1 45 3 is_stmt 1 view .LVU11
  53               	/* epilogue start */
  46:src/stream.c  **** 		{
  47:src/stream.c  **** 			_tb_write = _tb_start;
  48:src/stream.c  **** 		}
  49:src/stream.c  **** 	}
  50:src/stream.c  **** }
  54               		.loc 1 50 1 is_stmt 0 view .LVU12
  55 0038 0895      		ret
  56               		.cfi_endproc
  57               	.LFE40:
  59               	.global	__vector_18
  61               	__vector_18:
  62               	.LFB42:
  51:src/stream.c  **** 
  52:src/stream.c  **** static i16 uart_rx(void)
  53:src/stream.c  **** {
  54:src/stream.c  **** 	i16 c = -1;
  55:src/stream.c  **** 	if(_rb_available)
  56:src/stream.c  **** 	{
  57:src/stream.c  **** 		--_rb_available;
  58:src/stream.c  **** 		c = *_rb_read++;
  59:src/stream.c  **** 		if(_rb_read == _rb_end)
  60:src/stream.c  **** 		{
  61:src/stream.c  **** 			_rb_read = _rb_start;
  62:src/stream.c  **** 		}
  63:src/stream.c  **** 	}
  64:src/stream.c  **** 
  65:src/stream.c  **** 	return c;
  66:src/stream.c  **** }
  67:src/stream.c  **** 
  68:src/stream.c  **** ISR(USART_RX_vect)
  69:src/stream.c  **** {
  63               		.loc 1 69 1 is_stmt 1 view -0
  64               		.cfi_startproc
  65 003a 8F93 8FB7 		__gcc_isr 1
  65      8F93 
  66 0040 9F93      		push r25
  67               		.cfi_def_cfa_offset 3
  68               		.cfi_offset 25, -2
  69 0042 EF93      		push r30
  70               		.cfi_def_cfa_offset 4
  71               		.cfi_offset 30, -3
  72 0044 FF93      		push r31
  73               		.cfi_def_cfa_offset 5
  74               		.cfi_offset 31, -4
  75               	/* prologue: Signal */
  76               	/* frame size = 0 */
  77               	/* stack size = 3...7 */
  78               	.L__stack_usage = 3 + __gcc_isr.n_pushed
  70:src/stream.c  **** 	if(_rb_available < UART_BUFFER_SIZE)
  79               		.loc 1 70 2 view .LVU14
  80               		.loc 1 70 19 is_stmt 0 view .LVU15
  81 0046 8091 0000 		lds r24,_rb_available
  82               		.loc 1 70 4 view .LVU16
  83 004a 8032      		cpi r24,lo8(32)
  84 004c 00F4      		brsh .L7
  71:src/stream.c  **** 	{
  72:src/stream.c  **** 		++_rb_available;
  85               		.loc 1 72 3 is_stmt 1 view .LVU17
  86 004e 8091 0000 		lds r24,_rb_available
  87 0052 8F5F      		subi r24,lo8(-(1))
  88 0054 8093 0000 		sts _rb_available,r24
  73:src/stream.c  **** 		*_rb_write++ = UDR0;
  89               		.loc 1 73 3 view .LVU18
  90               		.loc 1 73 13 is_stmt 0 view .LVU19
  91 0058 E091 0000 		lds r30,_rb_write
  92 005c F091 0000 		lds r31,_rb_write+1
  93 0060 CF01      		movw r24,r30
  94 0062 0196      		adiw r24,1
  95 0064 9093 0000 		sts _rb_write+1,r25
  96 0068 8093 0000 		sts _rb_write,r24
  97               		.loc 1 73 18 view .LVU20
  98 006c 8091 C600 		lds r24,198
  99               		.loc 1 73 16 view .LVU21
 100 0070 8083      		st Z,r24
  74:src/stream.c  **** 		if(_rb_write == _rb_end)
 101               		.loc 1 74 3 is_stmt 1 view .LVU22
 102               	.L7:
 103               	/* epilogue start */
  75:src/stream.c  **** 		{
  76:src/stream.c  **** 			_rb_write = _rb_start;
  77:src/stream.c  **** 		}
  78:src/stream.c  **** 	}
  79:src/stream.c  **** }
 104               		.loc 1 79 1 is_stmt 0 view .LVU23
 105 0072 FF91      		pop r31
 106 0074 EF91      		pop r30
 107 0076 9F91      		pop r25
 108 0078 8F91 8FBF 		__gcc_isr 2
 108      8F91 
 109 007e 1895      		reti
 110               		__gcc_isr 0,r24
 111               		.cfi_endproc
 112               	.LFE42:
 114               	.global	__vector_19
 116               	__vector_19:
 117               	.LFB43:
  80:src/stream.c  **** 
  81:src/stream.c  **** ISR(USART_UDRE_vect)
  82:src/stream.c  **** {
 118               		.loc 1 82 1 is_stmt 1 view -0
 119               		.cfi_startproc
 120 0080 8F93 8FB7 		__gcc_isr 1
 120      8F93 
 121 0086 9F93      		push r25
 122               		.cfi_def_cfa_offset 3
 123               		.cfi_offset 25, -2
 124 0088 EF93      		push r30
 125               		.cfi_def_cfa_offset 4
 126               		.cfi_offset 30, -3
 127 008a FF93      		push r31
 128               		.cfi_def_cfa_offset 5
 129               		.cfi_offset 31, -4
 130               	/* prologue: Signal */
 131               	/* frame size = 0 */
 132               	/* stack size = 3...7 */
 133               	.L__stack_usage = 3 + __gcc_isr.n_pushed
  83:src/stream.c  **** 	if(_tb_available)
 134               		.loc 1 83 2 view .LVU25
 135               		.loc 1 83 5 is_stmt 0 view .LVU26
 136 008c 8091 0000 		lds r24,_tb_available
 137               		.loc 1 83 4 view .LVU27
 138 0090 8823      		tst r24
 139 0092 01F0      		breq .L9
  84:src/stream.c  **** 	{
  85:src/stream.c  **** 		--_tb_available;
 140               		.loc 1 85 3 is_stmt 1 view .LVU28
 141 0094 8091 0000 		lds r24,_tb_available
 142 0098 8150      		subi r24,lo8(-(-1))
 143 009a 8093 0000 		sts _tb_available,r24
  86:src/stream.c  **** 		UDR0 = *_tb_read++;
 144               		.loc 1 86 3 view .LVU29
 145               		.loc 1 86 19 is_stmt 0 view .LVU30
 146 009e E091 0000 		lds r30,_tb_read
 147 00a2 F091 0000 		lds r31,_tb_read+1
 148 00a6 CF01      		movw r24,r30
 149 00a8 0196      		adiw r24,1
 150 00aa 9093 0000 		sts _tb_read+1,r25
 151 00ae 8093 0000 		sts _tb_read,r24
 152               		.loc 1 86 10 view .LVU31
 153 00b2 8081      		ld r24,Z
 154               		.loc 1 86 8 view .LVU32
 155 00b4 8093 C600 		sts 198,r24
  87:src/stream.c  **** 		if(_tb_read == _tb_end)
 156               		.loc 1 87 3 is_stmt 1 view .LVU33
 157               		.loc 1 87 5 is_stmt 0 view .LVU34
 158 00b8 8091 0000 		lds r24,_tb_read
 159 00bc 9091 0000 		lds r25,_tb_read+1
 160 00c0 0097      		sbiw r24,0
 161 00c2 01F4      		brne .L9
  88:src/stream.c  **** 		{
  89:src/stream.c  **** 			_tb_read = _tb_start;
 162               		.loc 1 89 4 is_stmt 1 view .LVU35
 163               		.loc 1 89 13 is_stmt 0 view .LVU36
 164 00c4 80E0      		ldi r24,lo8(_tb_start)
 165 00c6 90E0      		ldi r25,hi8(_tb_start)
 166 00c8 9093 0000 		sts _tb_read+1,r25
 167 00cc 8093 0000 		sts _tb_read,r24
 168               	.L9:
 169               	/* epilogue start */
  90:src/stream.c  **** 		}
  91:src/stream.c  **** 	}
  92:src/stream.c  **** }
 170               		.loc 1 92 1 view .LVU37
 171 00d0 FF91      		pop r31
 172 00d2 EF91      		pop r30
 173 00d4 9F91      		pop r25
 174 00d6 8F91 8FBF 		__gcc_isr 2
 174      8F91 
 175 00dc 1895      		reti
 176               		__gcc_isr 0,r24
 177               		.cfi_endproc
 178               	.LFE43:
 180               		.section	.rodata.str1.1,"aMS",@progbits,1
 181               	.LC0:
 182 0000 6C69 6665 		.string	"life.uhc"
 182      2E75 6863 
 182      00
 183               	.LC1:
 184 0009 4661 696C 		.string	"Failed to open file "
 184      6564 2074 
 184      6F20 6F70 
 184      656E 2066 
 184      696C 6520 
 185               		.section	.text.startup,"ax",@progbits
 186               	.global	main
 188               	main:
 189               	.LFB224:
 190               		.file 2 "src/main.c"
   1:src/main.c    **** #include <stdio.h>
   2:src/main.c    **** #include <stdlib.h>
   3:src/main.c    **** #include <string.h>
   4:src/main.c    **** #include <ctype.h>
   5:src/main.c    **** #include <math.h>
   6:src/main.c    **** 
   7:src/main.c    **** #include "types.h"
   8:src/main.c    **** 
   9:src/main.c    **** #include "util.c"
  10:src/main.c    **** #include "instr.c"
  11:src/main.c    **** #include "error.c"
  12:src/main.c    **** #include "memory.c"
  13:src/main.c    **** #include "stream.c"
  14:src/main.c    **** #include "builtin.c"
  15:src/main.c    **** #include "token.c"
  16:src/main.c    **** #include "tokenizer.c"
  17:src/main.c    **** #include "parser.c"
  18:src/main.c    **** #include "interpreter.c"
  19:src/main.c    **** 
  20:src/main.c    **** static const char *const _usage_str PROGMEM = "Usage: ./nanoc [file]\n";
  21:src/main.c    **** static const char *const _fail_open_str PROGMEM = "Failed to open file ";
  22:src/main.c    **** 
  23:src/main.c    **** #if PLATFORM == PLATFORM_LINUX
  24:src/main.c    **** int main(int argc, char **argv)
  25:src/main.c    **** #elif PLATFORM == PLATFORM_AVR
  26:src/main.c    **** int main(void)
  27:src/main.c    **** #endif
  28:src/main.c    **** {
 191               		.loc 2 28 1 is_stmt 1 view -0
 192               		.cfi_startproc
 193               	/* prologue: function */
 194               	/* frame size = 0 */
 195               	/* stack size = 0 */
 196               	.L__stack_usage = 0
  29:src/main.c    **** 	u8 file;
 197               		.loc 2 29 2 view .LVU39
  30:src/main.c    **** 	i8 ret;
 198               		.loc 2 30 2 view .LVU40
  31:src/main.c    **** 	Interpreter i;
 199               		.loc 2 31 2 view .LVU41
  32:src/main.c    **** 	const char *filename;
 200               		.loc 2 32 2 view .LVU42
  33:src/main.c    **** 
  34:src/main.c    **** #if PLATFORM == PLATFORM_LINUX
  35:src/main.c    **** 	if(argc != 2)
  36:src/main.c    **** 	{
  37:src/main.c    **** 		stream_str_P(0, _usage_str);
  38:src/main.c    **** 		return 1;
  39:src/main.c    **** 	}
  40:src/main.c    **** 
  41:src/main.c    **** 	filename = argv[1];
  42:src/main.c    **** #elif PLATFORM == PLATFORM_AVR
  43:src/main.c    **** 	/* Load specific file from SD-Card for now */
  44:src/main.c    **** 	/* TODO: Shell, Editor */
  45:src/main.c    **** 	filename = "life.uhc";
 201               		.loc 2 45 2 view .LVU43
 202               	.LVL1:
  46:src/main.c    **** #endif
  47:src/main.c    **** 
  48:src/main.c    **** 	if(!(file = file_open(filename, "r")))
 203               		.loc 2 48 2 view .LVU44
  49:src/main.c    **** 	{
  50:src/main.c    **** 		stream_str_P(0, _fail_open_str);
 204               		.loc 2 50 3 view .LVU45
 205               	.LBB127:
 206               	.LBI127:
  93:src/stream.c  **** 
  94:src/stream.c  **** static void stream_init(void)
  95:src/stream.c  **** {
  96:src/stream.c  **** 	uart_init();
  97:src/stream.c  **** }
  98:src/stream.c  **** 
  99:src/stream.c  **** static void stream_char(u8 stream, char value)
 100:src/stream.c  **** {
 101:src/stream.c  **** 	if(stream == 0)
 102:src/stream.c  **** 	{
 103:src/stream.c  **** 		uart_tx(value);
 104:src/stream.c  **** 	}
 105:src/stream.c  **** 	else
 106:src/stream.c  **** 	{
 107:src/stream.c  **** 		/* TODO */
 108:src/stream.c  **** 	}
 109:src/stream.c  **** }
 110:src/stream.c  **** 
 111:src/stream.c  **** static u8 file_open(const char *filename, const char *mode)
 112:src/stream.c  **** {
 113:src/stream.c  **** 	/* TODO */
 114:src/stream.c  **** 	return 0;
 115:src/stream.c  **** }
 116:src/stream.c  **** 
 117:src/stream.c  **** static void file_close(u8 stream)
 118:src/stream.c  **** {
 119:src/stream.c  **** 	/* TODO */
 120:src/stream.c  **** }
 121:src/stream.c  **** 
 122:src/stream.c  **** static void file_write(u8 file, u8 bank, u16 addr, u16 size)
 123:src/stream.c  **** {
 124:src/stream.c  **** 	/* TODO */
 125:src/stream.c  **** }
 126:src/stream.c  **** 
 127:src/stream.c  **** static void file_read(u8 file, u8 bank, u16 addr, u16 size)
 128:src/stream.c  **** {
 129:src/stream.c  **** 	/* TODO */
 130:src/stream.c  **** }
 131:src/stream.c  **** 
 132:src/stream.c  **** static void file_seek(u8 file, u32 pos)
 133:src/stream.c  **** {
 134:src/stream.c  **** 	/* TODO */
 135:src/stream.c  **** }
 136:src/stream.c  **** 
 137:src/stream.c  **** static u32 file_tell(u8 file)
 138:src/stream.c  **** {
 139:src/stream.c  **** 	/* TODO */
 140:src/stream.c  **** 	return 0;
 141:src/stream.c  **** }
 142:src/stream.c  **** 
 143:src/stream.c  **** static void file_copy(const char *dst, const char *src)
 144:src/stream.c  **** {
 145:src/stream.c  **** 	/* TODO */
 146:src/stream.c  **** }
 147:src/stream.c  **** 
 148:src/stream.c  **** static void file_move(const char *dst, const char *src)
 149:src/stream.c  **** {
 150:src/stream.c  **** 	/* TODO */
 151:src/stream.c  **** }
 152:src/stream.c  **** 
 153:src/stream.c  **** static void file_delete(const char *filename)
 154:src/stream.c  **** {
 155:src/stream.c  **** 	/* TODO */
 156:src/stream.c  **** }
 157:src/stream.c  **** 
 158:src/stream.c  **** #elif PLATFORM == PLATFORM_LINUX
 159:src/stream.c  **** 
 160:src/stream.c  **** static FILE *_files[256];
 161:src/stream.c  **** 
 162:src/stream.c  **** static void stream_init(void)
 163:src/stream.c  **** {
 164:src/stream.c  **** 	/* Do Nothing */
 165:src/stream.c  **** }
 166:src/stream.c  **** 
 167:src/stream.c  **** static void stream_char(u8 stream, char value)
 168:src/stream.c  **** {
 169:src/stream.c  **** 	fputc(value, stream ? _files[stream] : stdout);
 170:src/stream.c  **** }
 171:src/stream.c  **** 
 172:src/stream.c  **** static u8 _find_slot(void)
 173:src/stream.c  **** {
 174:src/stream.c  **** 	u32 i;
 175:src/stream.c  **** 	for(i = 1; i < ARRLEN(_files); ++i)
 176:src/stream.c  **** 	{
 177:src/stream.c  **** 		if(!_files[i])
 178:src/stream.c  **** 		{
 179:src/stream.c  **** 			return i;
 180:src/stream.c  **** 		}
 181:src/stream.c  **** 	}
 182:src/stream.c  **** 
 183:src/stream.c  **** 	return 0;
 184:src/stream.c  **** }
 185:src/stream.c  **** 
 186:src/stream.c  **** static u8 file_open(const char *filename, const char *mode)
 187:src/stream.c  **** {
 188:src/stream.c  **** 	u8 id = _find_slot();
 189:src/stream.c  **** 	return (_files[id] = fopen(filename, mode)) ? id : 0;
 190:src/stream.c  **** }
 191:src/stream.c  **** 
 192:src/stream.c  **** static void file_close(u8 file)
 193:src/stream.c  **** {
 194:src/stream.c  **** 	fclose(_files[file]);
 195:src/stream.c  **** 	_files[file] = 0;
 196:src/stream.c  **** }
 197:src/stream.c  **** 
 198:src/stream.c  **** static void file_write(u8 file, u8 bank, u16 addr, u16 size)
 199:src/stream.c  **** {
 200:src/stream.c  **** 	if(file)
 201:src/stream.c  **** 	{
 202:src/stream.c  **** 		fwrite(_calculate_ptr(bank, addr), 1, size, _files[file]);
 203:src/stream.c  **** 	}
 204:src/stream.c  **** }
 205:src/stream.c  **** 
 206:src/stream.c  **** static void file_read(u8 file, u8 bank, u16 addr, u16 size)
 207:src/stream.c  **** {
 208:src/stream.c  **** 	if(file)
 209:src/stream.c  **** 	{
 210:src/stream.c  **** 		fread(_calculate_ptr(bank, addr), 1, size, _files[file]);
 211:src/stream.c  **** 	}
 212:src/stream.c  **** }
 213:src/stream.c  **** 
 214:src/stream.c  **** static void file_seek(u8 file, u32 pos)
 215:src/stream.c  **** {
 216:src/stream.c  **** 	if(file)
 217:src/stream.c  **** 	{
 218:src/stream.c  **** 		fseek(_files[file], pos, SEEK_SET);
 219:src/stream.c  **** 	}
 220:src/stream.c  **** }
 221:src/stream.c  **** 
 222:src/stream.c  **** static u32 file_tell(u8 file)
 223:src/stream.c  **** {
 224:src/stream.c  **** 	return file ? ftell(_files[file]) : 0;
 225:src/stream.c  **** }
 226:src/stream.c  **** 
 227:src/stream.c  **** static void file_copy(const char *dst, const char *src)
 228:src/stream.c  **** {
 229:src/stream.c  **** 	/* TODO */
 230:src/stream.c  **** }
 231:src/stream.c  **** 
 232:src/stream.c  **** static void file_move(const char *dst, const char *src)
 233:src/stream.c  **** {
 234:src/stream.c  **** 	/* TODO */
 235:src/stream.c  **** }
 236:src/stream.c  **** 
 237:src/stream.c  **** static void file_delete(const char *filename)
 238:src/stream.c  **** {
 239:src/stream.c  **** 	/* TODO */
 240:src/stream.c  **** }
 241:src/stream.c  **** 
 242:src/stream.c  **** #endif
 243:src/stream.c  **** 
 244:src/stream.c  **** /* PRINT */
 245:src/stream.c  **** static void stream_str(u8 stream, const char *s)
 246:src/stream.c  **** {
 247:src/stream.c  **** 	char c;
 248:src/stream.c  **** 	while((c = *s++))
 249:src/stream.c  **** 	{
 250:src/stream.c  **** 		stream_char(stream, c);
 251:src/stream.c  **** 	}
 252:src/stream.c  **** }
 253:src/stream.c  **** 
 254:src/stream.c  **** static void stream_str_P(u8 stream, const char *s)
 207               		.loc 1 254 13 view .LVU46
 208               		.loc 1 254 13 is_stmt 0 view .LVU47
 209 0000 C0E0      		ldi r28,lo8(.LC1)
 210 0002 D0E0      		ldi r29,hi8(.LC1)
 211               	.LVL2:
 212               	.L14:
 213               	.LBB128:
 255:src/stream.c  **** {
 256:src/stream.c  **** 	char c;
 257:src/stream.c  **** 	while((c = pgm_read_byte(s++)))
 214               		.loc 1 257 8 is_stmt 1 view .LVU48
 215               	.LBB129:
 216               		.loc 1 257 13 view .LVU49
 217               		.loc 1 257 13 view .LVU50
 218               		.loc 1 257 13 view .LVU51
 219 0004 FE01      		movw r30,r28
 220               	/* #APP */
 221               	 ;  257 "src/stream.c" 1
 222 0006 8491      		lpm r24, Z
 223               		
 224               	 ;  0 "" 2
 225               	.LVL3:
 226               		.loc 1 257 13 view .LVU52
 227               		.loc 1 257 13 is_stmt 0 view .LVU53
 228               	/* #NOAPP */
 229               	.LBE129:
 230               		.loc 1 257 8 view .LVU54
 231 0008 2196      		adiw r28,1
 232               	.LVL4:
 233               		.loc 1 257 8 view .LVU55
 234 000a 8111      		cpse r24,__zero_reg__
 235 000c 00C0      		rjmp .L15
 236 000e C0E0      		ldi r28,lo8(.LC0)
 237 0010 D0E0      		ldi r29,hi8(.LC0)
 238               	.LVL5:
 239               	.L16:
 240               		.loc 1 257 8 view .LVU56
 241               	.LBE128:
 242               	.LBE127:
 243               	.LBB133:
 244               	.LBB134:
 248:src/stream.c  **** 	{
 245               		.loc 1 248 8 is_stmt 1 view .LVU57
 248:src/stream.c  **** 	{
 246               		.loc 1 248 11 is_stmt 0 view .LVU58
 247 0012 8991      		ld r24,Y+
 248               	.LVL6:
 248:src/stream.c  **** 	{
 249               		.loc 1 248 8 view .LVU59
 250 0014 8111      		cpse r24,__zero_reg__
 251 0016 00C0      		rjmp .L17
 252               	.LVL7:
 248:src/stream.c  **** 	{
 253               		.loc 1 248 8 view .LVU60
 254               	.LBE134:
 255               	.LBE133:
  51:src/main.c    **** 		stream_str(0, filename);
  52:src/main.c    **** 		stream_char(0, '\n');
 256               		.loc 2 52 3 is_stmt 1 view .LVU61
 257               	.LBB138:
 258               	.LBI138:
  99:src/stream.c  **** {
 259               		.loc 1 99 13 view .LVU62
 260               	.LBB139:
 101:src/stream.c  **** 	{
 261               		.loc 1 101 2 view .LVU63
 103:src/stream.c  **** 	}
 262               		.loc 1 103 3 view .LVU64
 263 0018 8AE0      		ldi r24,lo8(10)
 264 001a 0E94 0000 		call uart_tx
 265               	.LVL8:
 108:src/stream.c  **** }
 266               		.loc 1 108 2 view .LVU65
 108:src/stream.c  **** }
 267               		.loc 1 108 2 is_stmt 0 view .LVU66
 268               	.LBE139:
 269               	.LBE138:
  53:src/main.c    **** 		return 1;
 270               		.loc 2 53 3 is_stmt 1 view .LVU67
  54:src/main.c    **** 	}
  55:src/main.c    **** 
  56:src/main.c    **** 	file_read(file, BANK_INPUT, 0, 0x8000);
  57:src/main.c    **** 	file_close(file);
  58:src/main.c    **** 
  59:src/main.c    **** 	tokenizer_init();
  60:src/main.c    **** 	if((ret = parser_compile()))
  61:src/main.c    **** 	{
  62:src/main.c    **** 		char c;
  63:src/main.c    **** 		u16 i, s;
  64:src/main.c    **** 		stream_dec(0, _token.Pos.Row);
  65:src/main.c    **** 		stream_char(0, ':');
  66:src/main.c    **** 		stream_dec(0, _token.Pos.Col);
  67:src/main.c    **** 		stream_str(0, ": ");
  68:src/main.c    **** 		stream_str(0, error_message(ret));
  69:src/main.c    **** 		stream_char(0, '\n');
  70:src/main.c    **** 		stream_dec_ext(0, 5, _token.Pos.Row);
  71:src/main.c    **** 		stream_str(0, " | ");
  72:src/main.c    **** 
  73:src/main.c    **** 		i = 0;
  74:src/main.c    **** 		s = _tokenizer.LineBegin;
  75:src/main.c    **** 		for(; (c = memory_r8(BANK_INPUT, s)) != '\n'; ++s, ++i)
  76:src/main.c    **** 		{
  77:src/main.c    **** 			if(i == _tokenizer.Pos.Col)
  78:src/main.c    **** 			{
  79:src/main.c    **** 				stream_str(0, COLOR_RED);
  80:src/main.c    **** 			}
  81:src/main.c    **** 
  82:src/main.c    **** 			if(i == _tokenizer.Pos.Col)
  83:src/main.c    **** 			{
  84:src/main.c    **** 				stream_str(0, COLOR_RESET);
  85:src/main.c    **** 			}
  86:src/main.c    **** 
  87:src/main.c    **** 			stream_char(0, c);
  88:src/main.c    **** 		}
  89:src/main.c    **** 
  90:src/main.c    **** 		stream_str(0, COLOR_RESET);
  91:src/main.c    **** 		stream_char(0, '\n');
  92:src/main.c    **** 		return 1;
  93:src/main.c    **** 	}
  94:src/main.c    **** 
  95:src/main.c    **** 	interpreter_init(&i);
  96:src/main.c    **** 
  97:src/main.c    **** #ifdef DEBUG_INTERPRETER
  98:src/main.c    **** 	disasm(&i, _parser.Offset);
  99:src/main.c    **** #endif
 100:src/main.c    **** 
 101:src/main.c    **** 	while(!interpreter_step(&i))
 102:src/main.c    **** 	{
 103:src/main.c    **** 	}
 104:src/main.c    **** 
 105:src/main.c    **** #if PLATFORM == PLATFORM_AVR
 106:src/main.c    **** 	for(;;)
 107:src/main.c    **** 	{
 108:src/main.c    **** 	}
 109:src/main.c    **** #endif
 110:src/main.c    **** 
 111:src/main.c    **** 	return 0;
 112:src/main.c    **** }
 271               		.loc 2 112 1 is_stmt 0 view .LVU68
 272 001e 81E0      		ldi r24,lo8(1)
 273 0020 90E0      		ldi r25,0
 274               	/* epilogue start */
 275 0022 0895      		ret
 276               	.LVL9:
 277               	.L15:
 278               	.LBB140:
 279               	.LBB132:
 258:src/stream.c  **** 	{
 259:src/stream.c  **** 		stream_char(stream, c);
 280               		.loc 1 259 3 is_stmt 1 view .LVU69
 281               	.LBB130:
 282               	.LBI130:
  99:src/stream.c  **** {
 283               		.loc 1 99 13 view .LVU70
 284               	.LBB131:
 101:src/stream.c  **** 	{
 285               		.loc 1 101 2 view .LVU71
 103:src/stream.c  **** 	}
 286               		.loc 1 103 3 view .LVU72
 287 0024 0E94 0000 		call uart_tx
 288               	.LVL10:
 108:src/stream.c  **** }
 289               		.loc 1 108 2 view .LVU73
 109:src/stream.c  **** 
 290               		.loc 1 109 1 is_stmt 0 view .LVU74
 291 0028 00C0      		rjmp .L14
 292               	.LVL11:
 293               	.L17:
 109:src/stream.c  **** 
 294               		.loc 1 109 1 view .LVU75
 295               	.LBE131:
 296               	.LBE130:
 297               	.LBE132:
 298               	.LBE140:
 299               	.LBB141:
 300               	.LBB137:
 250:src/stream.c  **** 	}
 301               		.loc 1 250 3 is_stmt 1 view .LVU76
 302               	.LBB135:
 303               	.LBI135:
  99:src/stream.c  **** {
 304               		.loc 1 99 13 view .LVU77
 305               	.LBB136:
 101:src/stream.c  **** 	{
 306               		.loc 1 101 2 view .LVU78
 103:src/stream.c  **** 	}
 307               		.loc 1 103 3 view .LVU79
 308 002a 0E94 0000 		call uart_tx
 309               	.LVL12:
 108:src/stream.c  **** }
 310               		.loc 1 108 2 view .LVU80
 109:src/stream.c  **** 
 311               		.loc 1 109 1 is_stmt 0 view .LVU81
 312 002e 00C0      		rjmp .L16
 313               	.LBE136:
 314               	.LBE135:
 315               	.LBE137:
 316               	.LBE141:
 317               		.cfi_endproc
 318               	.LFE224:
 320               		.local	_rb_write
 321               		.comm	_rb_write,2,1
 322               		.local	_tb_write
 323               		.comm	_tb_write,2,1
 324               		.local	_tb_read
 325               		.comm	_tb_read,2,1
 326               		.local	_rb_start
 327               		.comm	_rb_start,32,1
 328               		.local	_tb_start
 329               		.comm	_tb_start,32,1
 330               		.local	_rb_available
 331               		.comm	_rb_available,1,1
 332               		.local	_tb_available
 333               		.comm	_tb_available,1,1
 334               		.text
 335               	.Letext0:
 336               		.file 3 "/usr/lib/gcc/avr/12.2.0/include/stdint-gcc.h"
 337               		.file 4 "/usr/lib/gcc/avr/12.2.0/include/stddef.h"
 338               		.file 5 "src/types.h"
 339               		.file 6 "src/error.c"
 340               		.file 7 "src/instr.c"
 341               		.file 8 "src/builtin.c"
 342               		.file 9 "src/token.c"
 343               		.file 10 "src/tokenizer.c"
 344               		.file 11 "src/parser.c"
 345               		.file 12 "src/interpreter.c"
 346               		.file 13 "/usr/avr/include/math.h"
 347               		.file 14 "/usr/avr/include/ctype.h"
 348               		.file 15 "/usr/avr/include/stdio.h"
 349               		.file 16 "/usr/avr/include/string.h"
 350               		.file 17 "src/memory.c"
 351               		.file 18 "src/util.c"
 352               		.file 19 "/usr/avr/include/stdlib.h"